; Function Attrs: mustprogress nounwind uwtable
define { double, double } @_ZN8QuantLib5expm1ERKSt7complexIdE(ptr nocapture noundef nonnull readonly align 8 dereferenceable(16) %z) local_unnamed_addr #0 {
entry:
  %_M_value.real.i.i = load double, ptr %z, align 8
  %_M_value.imagp.i.i = getelementptr inbounds nuw i8, ptr %z, i64 8
  %_M_value.imag.i.i = load double, ptr %_M_value.imagp.i.i, align 8
  %call.i.i = tail call noundef double @cabs(double noundef %_M_value.real.i.i, double noundef %_M_value.imag.i.i) #5, !tbaa !3
  %cmp = fcmp olt double %call.i.i, 1.000000e+00
  br i1 %cmp, label %if.then, label %if.else

if.then:                                          ; preds = %entry
  %call3 = tail call double @expm1(double noundef %_M_value.real.i.i) #5, !tbaa !3
  %mul = fmul double %_M_value.imag.i.i, 5.000000e-01
  %call4 = tail call double @sin(double noundef %mul) #5, !tbaa !3
  %mul.i = fmul double %call4, %call4
  %mul6 = fmul double %mul.i, -2.000000e+00
  %0 = tail call double @llvm.fmuladd.f64(double %call3, double %mul6, double %call3)
  %add = fadd double %mul6, %0
  %call8 = tail call double @sin(double noundef %_M_value.imag.i.i) #5, !tbaa !3
  %call9 = tail call double @exp(double noundef %_M_value.real.i.i) #5, !tbaa !3
  %mul10 = fmul double %call8, %call9
  br label %return

if.else:                                          ; preds = %entry
  %_M_value.real.i.i9 = load double, ptr %z, align 8
  %_M_value.imag.i.i11 = load double, ptr %_M_value.imagp.i.i, align 8
  %call.i.i12 = tail call noundef { double, double } @cexp(double noundef %_M_value.real.i.i9, double noundef %_M_value.imag.i.i11) #5
  %1 = extractvalue { double, double } %call.i.i12, 0
  %2 = extractvalue { double, double } %call.i.i12, 1
  %sub.r.i.i = fadd double %1, -1.000000e+00
  br label %return

return:                                           ; preds = %if.else, %if.then
  %retval.sroa.0.0 = phi double [ %add, %if.then ], [ %sub.r.i.i, %if.else ]
  %retval.sroa.3.0 = phi double [ %mul10, %if.then ], [ %2, %if.else ]
  %.fca.0.insert = insertvalue { double, double } poison, double %retval.sroa.0.0, 0
  %.fca.1.insert = insertvalue { double, double } %.fca.0.insert, double %retval.sroa.3.0, 1
  ret { double, double } %.fca.1.insert
}